ccopy_reg
_reconstructor
p0
(cdeap.tools.support
Logbook
p1
c__builtin__
list
p2
(lp3
(dp4
S'generation'
p5
I0
sS'max'
p6
(F9.1
tp7
sS'mean'
p8
cnumpy.core.multiarray
scalar
p9
(cnumpy
dtype
p10
(S'f8'
p11
I0
I1
tp12
Rp13
(I3
S'<'
p14
NNNI-1
I-1
I0
tp15
bS'm\xa0\xd3\x06:m\xf0?'
p16
tp17
Rp18
sS'best'
p19
S'AGKPK'
p20
sS'min'
p21
(F-0.9
tp22
sa(dp23
g5
I1
sg6
(F9.1
tp24
sg8
g9
(g13
S'm\xa0\xd3\x06:m\xf0?'
p25
tp26
Rp27
sg19
S'AGKPK'
p28
sg21
(F-0.9
tp29
sa(dp30
g5
I2
sg6
(F9.1
tp31
sg8
g9
(g13
S'\xe8\xb4\x81N\x1b\xe8\xf0?'
p32
tp33
Rp34
sg19
S'AGKPK'
p35
sg21
(F0.0
tp36
sa(dp37
g5
I3
sg6
(F9.1
tp38
sg8
g9
(g13
S'\xe8\xb4\x81N\x1b\xe8\xf0?'
p39
tp40
Rp41
sg19
S'AGKPK'
p42
sg21
(F0.0
tp43
sa(dp44
g5
I4
sg6
(F9.1
tp45
sg8
g9
(g13
S'\xe8\xb4\x81N\x1b\xe8\xf0?'
p46
tp47
Rp48
sg19
S'AGKPK'
p49
sg21
(F0.0
tp50
sa(dp51
g5
I5
sg6
(F9.1
tp52
sg8
g9
(g13
S'\xe8\xb4\x81N\x1b\xe8\xf0?'
p53
tp54
Rp55
sg19
S'AGKPK'
p56
sg21
(F0.0
tp57
sa(dp58
g5
I6
sg6
(F9.1
tp59
sg8
g9
(g13
S'\xe8\xb4\x81N\x1b\xe8\xf0?'
p60
tp61
Rp62
sg19
S'AGKPK'
p63
sg21
(F0.0
tp64
sa(dp65
g5
I7
sg6
(F9.1
tp66
sg8
g9
(g13
S'\x8c%\xbfX\xf2\x8b\xf5?'
p67
tp68
Rp69
sg19
S'AGKPK'
p70
sg21
(F0.0
tp71
sa(dp72
g5
I8
sg6
(F9.1
tp73
sg8
g9
(g13
S'\x8c%\xbfX\xf2\x8b\xf5?'
p74
tp75
Rp76
sg19
S'AGKPK'
p77
sg21
(F0.0
tp78
sa(dp79
g5
I9
sg6
(F9.1
tp80
sg8
g9
(g13
S'\x8b%\xbfX\xf2\x8b\xf5?'
p81
tp82
Rp83
sg19
S'AGKPK'
p84
sg21
(F0.0
tp85
sa(dp86
g5
I10
sg6
(F9.1
tp87
sg8
g9
(g13
S'\x8b%\xbfX\xf2\x8b\xf5?'
p88
tp89
Rp90
sg19
S'AGKPK'
p91
sg21
(F0.0
tp92
sa(dp93
g5
I11
sg6
(F9.1
tp94
sg8
g9
(g13
S'\x8b%\xbfX\xf2\x8b\xf5?'
p95
tp96
Rp97
sg19
S'AGKPK'
p98
sg21
(F0.0
tp99
sa(dp100
g5
I12
sg6
(F9.1
tp101
sg8
g9
(g13
S'\x8c%\xbfX\xf2\x8b\xf5?'
p102
tp103
Rp104
sg19
S'AGKPK'
p105
sg21
(F0.0
tp106
sa(dp107
g5
I13
sg6
(F9.1
tp108
sg8
g9
(g13
S'\x8c%\xbfX\xf2\x8b\xf5?'
p109
tp110
Rp111
sg19
S'AGKPK'
p112
sg21
(F0.0
tp113
sa(dp114
g5
I14
sg6
(F9.1
tp115
sg8
g9
(g13
S'\x8c%\xbfX\xf2\x8b\xf5?'
p116
tp117
Rp118
sg19
S'AGKPK'
p119
sg21
(F0.0
tp120
sa(dp121
g5
I15
sg6
(F9.1
tp122
sg8
g9
(g13
S'\x8c%\xbfX\xf2\x8b\xf5?'
p123
tp124
Rp125
sg19
S'AGKPK'
p126
sg21
(F0.0
tp127
sa(dp128
g5
I16
sg6
(F9.1
tp129
sg8
g9
(g13
S'\x8c%\xbfX\xf2\x8b\xf5?'
p130
tp131
Rp132
sg19
S'AGKPK'
p133
sg21
(F0.0
tp134
sa(dp135
g5
I17
sg6
(F9.1
tp136
sg8
g9
(g13
S'\x8b%\xbfX\xf2\x8b\xf5?'
p137
tp138
Rp139
sg19
S'AGKPK'
p140
sg21
(F0.0
tp141
sa(dp142
g5
I18
sg6
(F9.1
tp143
sg8
g9
(g13
S'\x8e\xc2\xf5(\\\x8f\xf6?'
p144
tp145
Rp146
sg19
S'AGKPK'
p147
sg21
(F0.0
tp148
sa(dp149
g5
I19
sg6
(F9.1
tp150
sg8
g9
(g13
S'233333\xf7?'
p151
tp152
Rp153
sg19
S'AGKPK'
p154
sg21
(F0.0
tp155
sa(dp156
g5
I20
sg6
(F9.1
tp157
sg8
g9
(g13
S'333333\xf7?'
p158
tp159
Rp160
sg19
S'AGKPK'
p161
sg21
(F0.0
tp162
sa(dp163
g5
I21
sg6
(F9.1
tp164
sg8
g9
(g13
S'233333\xf7?'
p165
tp166
Rp167
sg19
S'AGKPK'
p168
sg21
(F0.0
tp169
sa(dp170
g5
I22
sg6
(F9.1
tp171
sg8
g9
(g13
S'233333\xf7?'
p172
tp173
Rp174
sg19
S'AGKPK'
p175
sg21
(F0.0
tp176
sa(dp177
g5
I23
sg6
(F9.1
tp178
sg8
g9
(g13
S'\xb7\x1e\x85\xebQ\xb8\xfa?'
p179
tp180
Rp181
sg19
S'AGKPK'
p182
sg21
(F0.0
tp183
sa(dp184
g5
I24
sg6
(F9.1
tp185
sg8
g9
(g13
S'\xb9\x1e\x85\xebQ\xb8\xfa?'
p186
tp187
Rp188
sg19
S'AGKPK'
p189
sg21
(F0.0
tp190
sa(dp191
g5
I25
sg6
(F9.1
tp192
sg8
g9
(g13
S'\xb9\x1e\x85\xebQ\xb8\xfa?'
p193
tp194
Rp195
sg19
S'AGKPK'
p196
sg21
(F0.0
tp197
sa(dp198
g5
I26
sg6
(F9.1
tp199
sg8
g9
(g13
S'\xb9\x1e\x85\xebQ\xb8\xfa?'
p200
tp201
Rp202
sg19
S'AGKPK'
p203
sg21
(F0.0
tp204
sa(dp205
g5
I27
sg6
(F9.1
tp206
sg8
g9
(g13
S'\xb9\x1e\x85\xebQ\xb8\xfa?'
p207
tp208
Rp209
sg19
S'AGKPK'
p210
sg21
(F0.0
tp211
sa(dp212
g5
I28
sg6
(F9.1
tp213
sg8
g9
(g13
S'\xb9\x1e\x85\xebQ\xb8\xfa?'
p214
tp215
Rp216
sg19
S'AGKPK'
p217
sg21
(F0.0
tp218
sa(dp219
g5
I29
sg6
(F9.1
tp220
sg8
g9
(g13
S'\xb9\x1e\x85\xebQ\xb8\xfa?'
p221
tp222
Rp223
sg19
S'AGKPK'
p224
sg21
(F0.0
tp225
sa(dp226
g5
I30
sg6
(F9.1
tp227
sg8
g9
(g13
S'\xb9\x1e\x85\xebQ\xb8\xfa?'
p228
tp229
Rp230
sg19
S'AGKPK'
p231
sg21
(F0.0
tp232
sa(dp233
g5
I31
sg6
(F9.1
tp234
sg8
g9
(g13
S'\xb7\x1e\x85\xebQ\xb8\xfa?'
p235
tp236
Rp237
sg19
S'AGKPK'
p238
sg21
(F0.0
tp239
sa(dp240
g5
I32
sg6
(F9.1
tp241
sg8
g9
(g13
S'\xb9\x1e\x85\xebQ\xb8\xfa?'
p242
tp243
Rp244
sg19
S'AGKPK'
p245
sg21
(F0.0
tp246
sa(dp247
g5
I33
sg6
(F9.1
tp248
sg8
g9
(g13
S'\x92_,\xf9\xc5\x92\xff?'
p249
tp250
Rp251
sg19
S'AGKPK'
p252
sg21
(F0.0
tp253
sa(dp254
g5
I34
sg6
(F9.1
tp255
sg8
g9
(g13
S'\x92_,\xf9\xc5\x92\xff?'
p256
tp257
Rp258
sg19
S'AGKPK'
p259
sg21
(F0.0
tp260
sa(dp261
g5
I35
sg6
(F9.1
tp262
sg8
g9
(g13
S'\x92_,\xf9\xc5\x92\xff?'
p263
tp264
Rp265
sg19
S'AGKPK'
p266
sg21
(F0.0
tp267
sa(dp268
g5
I36
sg6
(F9.1
tp269
sg8
g9
(g13
S'""""""\x02@'
p270
tp271
Rp272
sg19
S'AGKPK'
p273
sg21
(F0.0
tp274
sa(dp275
g5
I37
sg6
(F9.1
tp276
sg8
g9
(g13
S'""""""\x02@'
p277
tp278
Rp279
sg19
S'AGKPK'
p280
sg21
(F0.0
tp281
sa(dp282
g5
I38
sg6
(F9.1
tp283
sg8
g9
(g13
S'""""""\x02@'
p284
tp285
Rp286
sg19
S'AGKPK'
p287
sg21
(F0.0
tp288
sa(dp289
g5
I39
sg6
(F9.1
tp290
sg8
g9
(g13
S'""""""\x02@'
p291
tp292
Rp293
sg19
S'AGKPK'
p294
sg21
(F0.0
tp295
sa(dp296
g5
I40
sg6
(F9.1
tp297
sg8
g9
(g13
S'""""""\x02@'
p298
tp299
Rp300
sg19
S'AGKPK'
p301
sg21
(F0.0
tp302
sa(dp303
g5
I41
sg6
(F9.1
tp304
sg8
g9
(g13
S'""""""\x02@'
p305
tp306
Rp307
sg19
S'AGKPK'
p308
sg21
(F0.0
tp309
sa(dp310
g5
I42
sg6
(F9.1
tp311
sg8
g9
(g13
S'""""""\x02@'
p312
tp313
Rp314
sg19
S'AGKPK'
p315
sg21
(F0.0
tp316
sa(dp317
g5
I43
sg6
(F9.1
tp318
sg8
g9
(g13
S'""""""\x02@'
p319
tp320
Rp321
sg19
S'AGKPK'
p322
sg21
(F0.0
tp323
sa(dp324
g5
I44
sg6
(F9.1
tp325
sg8
g9
(g13
S'\xcd\xcc\xcc\xcc\xcc\xcc\x02@'
p326
tp327
Rp328
sg19
S'AGKPK'
p329
sg21
(F0.0
tp330
sa(dp331
g5
I45
sg6
(F9.1
tp332
sg8
g9
(g13
S'333333\x03@'
p333
tp334
Rp335
sg19
S'AGKPK'
p336
sg21
(F0.0
tp337
sa(dp338
g5
I46
sg6
(F9.1
tp339
sg8
g9
(g13
S'A\xa7\rt\xda@\x03@'
p340
tp341
Rp342
sg19
S'AGKPK'
p343
sg21
(F0.0
tp344
sa(dp345
g5
I47
sg6
(F9.1
tp346
sg8
g9
(g13
S'ffffff\x04@'
p347
tp348
Rp349
sg19
S'AGKPK'
p350
sg21
(F0.0
tp351
sa(dp352
g5
I48
sg6
(F9.1
tp353
sg8
g9
(g13
S'\xecQ\xb8\x1e\x85\xeb\x03@'
p354
tp355
Rp356
sg19
S'AGKPK'
p357
sg21
(F-1.8
tp358
sa(dp359
g5
I49
sg6
(F9.1
tp360
sg8
g9
(g13
S'\xecQ\xb8\x1e\x85\xeb\x03@'
p361
tp362
Rp363
sg19
S'AGKPK'
p364
sg21
(F-1.8
tp365
sa(dp366
g5
I50
sg6
(F9.1
tp367
sg8
g9
(g13
S'\xecQ\xb8\x1e\x85\xeb\x03@'
p368
tp369
Rp370
sg19
S'AGKPK'
p371
sg21
(F-1.8
tp372
sa(dp373
g5
I51
sg6
(F9.1
tp374
sg8
g9
(g13
S'\xecQ\xb8\x1e\x85\xeb\x03@'
p375
tp376
Rp377
sg19
S'AGKPK'
p378
sg21
(F-1.8
tp379
sa(dp380
g5
I52
sg6
(F9.1
tp381
sg8
g9
(g13
S'\xecQ\xb8\x1e\x85\xeb\x03@'
p382
tp383
Rp384
sg19
S'AGKPK'
p385
sg21
(F-1.8
tp386
sa(dp387
g5
I53
sg6
(F9.1
tp388
sg8
g9
(g13
S'\xecQ\xb8\x1e\x85\xeb\x03@'
p389
tp390
Rp391
sg19
S'AGKPK'
p392
sg21
(F-1.8
tp393
sa(dp394
g5
I54
sg6
(F9.1
tp395
sg8
g9
(g13
S'm\xa0\xd3\x06:m\x04@'
p396
tp397
Rp398
sg19
S'AGKPK'
p399
sg21
(F0.0
tp400
sa(dp401
g5
I55
sg6
(F9.1
tp402
sg8
g9
(g13
S'm\xa0\xd3\x06:m\x04@'
p403
tp404
Rp405
sg19
S'AGKPK'
p406
sg21
(F0.0
tp407
sa(dp408
g5
I56
sg6
(F9.1
tp409
sg8
g9
(g13
S'm\xa0\xd3\x06:m\x04@'
p410
tp411
Rp412
sg19
S'AGKPK'
p413
sg21
(F0.0
tp414
sa(dp415
g5
I57
sg6
(F9.1
tp416
sg8
g9
(g13
S'm\xa0\xd3\x06:m\x04@'
p417
tp418
Rp419
sg19
S'AGKPK'
p420
sg21
(F0.0
tp421
sa(dp422
g5
I58
sg6
(F9.1
tp423
sg8
g9
(g13
S'm\xa0\xd3\x06:m\x04@'
p424
tp425
Rp426
sg19
S'AGKPK'
p427
sg21
(F0.0
tp428
sa(dp429
g5
I59
sg6
(F9.1
tp430
sg8
g9
(g13
S'm\xa0\xd3\x06:m\x04@'
p431
tp432
Rp433
sg19
S'AGKPK'
p434
sg21
(F0.0
tp435
sa(dp436
g5
I60
sg6
(F9.1
tp437
sg8
g9
(g13
S's\xda@\xa7\rt\x06@'
p438
tp439
Rp440
sg19
S'AGKPK'
p441
sg21
(F0.0
tp442
sa(dp443
g5
I61
sg6
(F9.1
tp444
sg8
g9
(g13
S's\xda@\xa7\rt\x06@'
p445
tp446
Rp447
sg19
S'AGKPK'
p448
sg21
(F0.0
tp449
sa(dp450
g5
I62
sg6
(F9.1
tp451
sg8
g9
(g13
S'\xf1\x8b%\xbfX\xf2\x05@'
p452
tp453
Rp454
sg19
S'AGKPK'
p455
sg21
(F0.0
tp456
sa(dp457
g5
I63
sg6
(F17.1
tp458
sg8
g9
(g13
S'\x80N\x1b\xe8\xb4\x81\n@'
p459
tp460
Rp461
sg19
S'HGKGO'
p462
sg21
(F0.0
tp463
sa(dp464
g5
I64
sg6
(F17.1
tp465
sg8
g9
(g13
S'}\xb1\xe4\x17K~\r@'
p466
tp467
Rp468
sg19
S'HGKGO'
p469
sg21
(F0.0
tp470
sa(dp471
g5
I65
sg6
(F17.1
tp472
sg8
g9
(g13
S'\xca/\x96\xfcb\xc9\x0f@'
p473
tp474
Rp475
sg19
S'HGKGO'
p476
sg21
(F0.0
tp477
sa(dp478
g5
I66
sg6
(F17.1
tp479
sg8
g9
(g13
S'\xca/\x96\xfcb\xc9\x0f@'
p480
tp481
Rp482
sg19
S'HGKGO'
p483
sg21
(F0.0
tp484
sa(dp485
g5
I67
sg6
(F17.1
tp486
sg8
g9
(g13
S'\xca/\x96\xfcb\xc9\x0f@'
p487
tp488
Rp489
sg19
S'HGKGO'
p490
sg21
(F0.0
tp491
sa(dp492
g5
I68
sg6
(F17.1
tp493
sg8
g9
(g13
S'z\x14\xaeG\xe1z\x10@'
p494
tp495
Rp496
sg19
S'HGKGO'
p497
sg21
(F0.0
tp498
sa(dp499
g5
I69
sg6
(F17.1
tp500
sg8
g9
(g13
S'{\x14\xaeG\xe1z\x10@'
p501
tp502
Rp503
sg19
S'HGKGO'
p504
sg21
(F0.0
tp505
sa(dp506
g5
I70
sg6
(F17.1
tp507
sg8
g9
(g13
S'\xde\xdd\xdd\xdd\xdd\xdd\x10@'
p508
tp509
Rp510
sg19
S'HGKGO'
p511
sg21
(F0.0
tp512
sa(dp513
g5
I71
sg6
(F17.1
tp514
sg8
g9
(g13
S'\x0b\xd7\xa3p=\n\x12@'
p515
tp516
Rp517
sg19
S'HGKGO'
p518
sg21
(F0.0
tp519
sa(dp520
g5
I72
sg6
(F17.1
tp521
sg8
g9
(g13
S'\xe2z\x14\xaeG\xe1\x11@'
p522
tp523
Rp524
sg19
S'HGKGO'
p525
sg21
(F-1.2
tp526
sa(dp527
g5
I73
sg6
(F17.1
tp528
sg8
g9
(g13
S'\xe2z\x14\xaeG\xe1\x11@'
p529
tp530
Rp531
sg19
S'HGKGO'
p532
sg21
(F-1.2
tp533
sa(dp534
g5
I74
sg6
(F17.1
tp535
sg8
g9
(g13
S'\x04\x9d6\xd0i\x03\x12@'
p536
tp537
Rp538
sg19
S'HGKGO'
p539
sg21
(F-1.2
tp540
sa(dp541
g5
I75
sg6
(F17.1
tp542
sg8
g9
(g13
S'\x04\x9d6\xd0i\x03\x12@'
p543
tp544
Rp545
sg19
S'HGKGO'
p546
sg21
(F-1.2
tp547
sa(dp548
g5
I76
sg6
(F17.1
tp549
sg8
g9
(g13
S'\x04\x9d6\xd0i\x03\x12@'
p550
tp551
Rp552
sg19
S'HGKGO'
p553
sg21
(F-1.2
tp554
sa(dp555
g5
I77
sg6
(F17.1
tp556
sg8
g9
(g13
S'\x04\x9d6\xd0i\x03\x12@'
p557
tp558
Rp559
sg19
S'HGKGO'
p560
sg21
(F-1.2
tp561
sa(dp562
g5
I78
sg6
(F17.1
tp563
sg8
g9
(g13
S'`,\xf9\xc5\x92_\x12@'
p564
tp565
Rp566
sg19
S'HGKGO'
p567
sg21
(F0.0
tp568
sa(dp569
g5
I79
sg6
(F17.1
tp570
sg8
g9
(g13
S'`,\xf9\xc5\x92_\x12@'
p571
tp572
Rp573
sg19
S'HGKGO'
p574
sg21
(F0.0
tp575
sa(dp576
g5
I80
sg6
(F17.1
tp577
sg8
g9
(g13
S'`,\xf9\xc5\x92_\x12@'
p578
tp579
Rp580
sg19
S'HGKGO'
p581
sg21
(F0.0
tp582
sa(dp583
g5
I81
sg6
(F17.1
tp584
sg8
g9
(g13
S'\x90\xc2\xf5(\\\x8f\x12@'
p585
tp586
Rp587
sg19
S'HGKGO'
p588
sg21
(F0.0
tp589
sa(dp590
g5
I82
sg6
(F17.1
tp591
sg8
g9
(g13
S'\xbd\xbb\xbb\xbb\xbb\xbb\x13@'
p592
tp593
Rp594
sg19
S'HGKGO'
p595
sg21
(F0.0
tp596
sa(dp597
g5
I83
sg6
(F17.1
tp598
sg8
g9
(g13
S'\xbd\xbb\xbb\xbb\xbb\xbb\x13@'
p599
tp600
Rp601
sg19
S'HGKGO'
p602
sg21
(F0.0
tp603
sa(dp604
g5
I84
sg6
(F17.1
tp605
sg8
g9
(g13
S'G\xe1z\x14\xaeG\x15@'
p606
tp607
Rp608
sg19
S'HGKGO'
p609
sg21
(F0.0
tp610
sa(dp611
g5
I85
sg6
(F17.1
tp612
sg8
g9
(g13
S'G\xe1z\x14\xaeG\x15@'
p613
tp614
Rp615
sg19
S'HGKGO'
p616
sg21
(F0.0
tp617
sa(dp618
g5
I86
sg6
(F17.1
tp619
sg8
g9
(g13
S'G\xe1z\x14\xaeG\x15@'
p620
tp621
Rp622
sg19
S'HGKGO'
p623
sg21
(F0.0
tp624
sa(dp625
g5
I87
sg6
(F17.1
tp626
sg8
g9
(g13
S'A\xa7\rt\xda@\x15@'
p627
tp628
Rp629
sg19
S'HGKGO'
p630
sg21
(F0.0
tp631
sa(dp632
g5
I88
sg6
(F17.1
tp633
sg8
g9
(g13
S'A\xa7\rt\xda@\x15@'
p634
tp635
Rp636
sg19
S'HGKGO'
p637
sg21
(F0.0
tp638
sa(dp639
g5
I89
sg6
(F17.1
tp640
sg8
g9
(g13
S':m\xa0\xd3\x06:\x15@'
p641
tp642
Rp643
sg19
S'HGKGO'
p644
sg21
(F0.0
tp645
sa(dp646
g5
I90
sg6
(F17.1
tp647
sg8
g9
(g13
S':m\xa0\xd3\x06:\x15@'
p648
tp649
Rp650
sg19
S'HGKGO'
p651
sg21
(F0.0
tp652
sa(dp653
g5
I91
sg6
(F17.1
tp654
sg8
g9
(g13
S':m\xa0\xd3\x06:\x15@'
p655
tp656
Rp657
sg19
S'HGKGO'
p658
sg21
(F0.0
tp659
sa(dp660
g5
I92
sg6
(F17.1
tp661
sg8
g9
(g13
S':m\xa0\xd3\x06:\x15@'
p662
tp663
Rp664
sg19
S'HGKGO'
p665
sg21
(F0.0
tp666
sa(dp667
g5
I93
sg6
(F17.1
tp668
sg8
g9
(g13
S':m\xa0\xd3\x06:\x15@'
p669
tp670
Rp671
sg19
S'HGKGO'
p672
sg21
(F0.0
tp673
sa(dp674
g5
I94
sg6
(F17.1
tp675
sg8
g9
(g13
S':m\xa0\xd3\x06:\x15@'
p676
tp677
Rp678
sg19
S'HGKGO'
p679
sg21
(F0.0
tp680
sa(dp681
g5
I95
sg6
(F17.1
tp682
sg8
g9
(g13
S':m\xa0\xd3\x06:\x15@'
p683
tp684
Rp685
sg19
S'HGKGO'
p686
sg21
(F0.0
tp687
sa(dp688
g5
I96
sg6
(F17.1
tp689
sg8
g9
(g13
S':m\xa0\xd3\x06:\x15@'
p690
tp691
Rp692
sg19
S'HGKGO'
p693
sg21
(F0.0
tp694
sa(dp695
g5
I97
sg6
(F17.1
tp696
sg8
g9
(g13
S':m\xa0\xd3\x06:\x15@'
p697
tp698
Rp699
sg19
S'HGKGO'
p700
sg21
(F0.0
tp701
sa(dp702
g5
I98
sg6
(F17.1
tp703
sg8
g9
(g13
S'b\xc9/\x96\xfcb\x16@'
p704
tp705
Rp706
sg19
S'HGKGO'
p707
sg21
(F0.0
tp708
sa(dp709
g5
I99
sg6
(F17.1
tp710
sg8
g9
(g13
S'b\xc9/\x96\xfcb\x16@'
p711
tp712
Rp713
sg19
S'HGKGO'
p714
sg21
(F0.0
tp715
satp716
Rp717
(dp718
S'log_header'
p719
I01
sS'header'
p720
NsS'columns_len'
p721
NsS'buffindex'
p722
I0
sS'chapters'
p723
ccollections
defaultdict
p724
(g1
tp725
Rp726
sb.