ccopy_reg
_reconstructor
p0
(cdeap.tools.support
Logbook
p1
c__builtin__
list
p2
(lp3
(dp4
S'generation'
p5
I0
sS'max'
p6
(F17.2
tp7
sS'mean'
p8
cnumpy.core.multiarray
scalar
p9
(cnumpy
dtype
p10
(S'f8'
p11
I0
I1
tp12
Rp13
(I3
S'<'
p14
NNNI-1
I-1
I0
tp15
bS'\rt\xda@\xa7\r\x00@'
p16
tp17
Rp18
sS'best'
p19
S'OHILB'
p20
sS'min'
p21
(F-2.2
tp22
satp23
Rp24
(dp25
S'log_header'
p26
I01
sS'header'
p27
NsS'columns_len'
p28
NsS'buffindex'
p29
I0
sS'chapters'
p30
ccollections
defaultdict
p31
(g1
tp32
Rp33
sb.